target datalayout = "e-m:e-p270:32:32-p271:32:32-p272:64:64-i64:64-i128:128-f80:128-n8:16:32:64-S128"
target triple = "x86_64-pc-linux-gnu"

%struct.H5FL_reg_head_t = type { i8, i32, i32, ptr, i64, ptr }
%struct.H5C_cache_entry_t = type { ptr, i64, i64, ptr, i8, ptr, i8, i8, i8, i8, i32, i8, i8, i8, i8, i8, i32, ptr, i32, i32, i32, i32, i32, i8, i8, ptr, ptr, ptr, ptr, ptr, ptr, i8, i32, i8, i64, ptr, i64, i64, i32, i8, i32, i32, i8, ptr, ptr, ptr }

@.str.1 = private unnamed_addr constant [107 x i8] c"generated/home/dtcxzyw/WorkSpace/Projects/compilers/llvm-opt-benchmark/bench/hdf5/hdf5/src/H5Cprefetched.c\00", align 1
@H5E_CACHE_g = external global i64, align 8
@H5E_SYSTEM_g = external global i64, align 8
@__func__.H5C__prefetched_entry_free_icr = private unnamed_addr constant [31 x i8] c"H5C__prefetched_entry_free_icr\00", align 1
@.str.5 = private unnamed_addr constant [46 x i8] c"prefetched entry image buffer still attached?\00", align 1
@H5_H5C_cache_entry_t_reg_free_list = external global %struct.H5FL_reg_head_t, align 8

; Function Attrs: nounwind uwtable
define internal i32 @H5C__prefetched_entry_free_icr(ptr noundef %0) #0 {
  %2 = alloca ptr, align 8
  %3 = alloca ptr, align 8
  %4 = alloca i32, align 4
  %5 = alloca i8, align 1
  store ptr %0, ptr %2, align 8
  %6 = load ptr, ptr %2, align 8
  store ptr %6, ptr %3, align 8
  store i32 0, ptr %4, align 4
  store i8 0, ptr %5, align 1
  %7 = load ptr, ptr %3, align 8
  %8 = getelementptr inbounds %struct.H5C_cache_entry_t, ptr %7, i32 0, i32 35
  %9 = load ptr, ptr %8, align 8
  %10 = icmp ne ptr %9, null
  br i1 %10, label %11, label %18

11:                                               ; preds = %1
  %12 = load ptr, ptr %3, align 8
  %13 = getelementptr inbounds %struct.H5C_cache_entry_t, ptr %12, i32 0, i32 35
  %14 = load ptr, ptr %13, align 8
  %15 = call ptr @H5MM_xfree(ptr noundef %14)
  %16 = load ptr, ptr %3, align 8
  %17 = getelementptr inbounds %struct.H5C_cache_entry_t, ptr %16, i32 0, i32 35
  store ptr %15, ptr %17, align 8
  br label %19

18:                                               ; preds = %1
  br label %19

19:                                               ; preds = %18, %11
  %20 = load ptr, ptr %3, align 8
  %21 = getelementptr inbounds %struct.H5C_cache_entry_t, ptr %20, i32 0, i32 3
  %22 = load ptr, ptr %21, align 8
  %23 = icmp ne ptr %22, null
  br i1 %23, label %24, label %39

24:                                               ; preds = %19
  br label %25

25:                                               ; preds = %24
  br label %26

26:                                               ; preds = %25
  br label %27

27:                                               ; preds = %26
  %28 = load i64, ptr @H5E_CACHE_g, align 8
  %29 = load i64, ptr @H5E_SYSTEM_g, align 8
  %30 = call i32 (ptr, ptr, i32, i64, i64, ptr, ...) @H5E_printf_stack(ptr noundef @.str.1, ptr noundef @__func__.H5C__prefetched_entry_free_icr, i32 noundef 302, i64 noundef %28, i64 noundef %29, ptr noundef @.str.5)
  br label %31

31:                                               ; preds = %27
  store i8 1, ptr %5, align 1
  %32 = load i8, ptr %5, align 1
  %33 = trunc i8 %32 to i1
  %34 = zext i1 %33 to i8
  store i8 %34, ptr %5, align 1
  br label %35

35:                                               ; preds = %31
  br label %36

36:                                               ; preds = %35
  store i32 -1, ptr %4, align 4
  br label %42

37:                                               ; No predecessors!
  br label %38

38:                                               ; preds = %37
  br label %39

39:                                               ; preds = %38, %19
  %40 = load ptr, ptr %3, align 8
  %41 = call ptr @H5FL_reg_free(ptr noundef @H5_H5C_cache_entry_t_reg_free_list, ptr noundef %40)
  store ptr %41, ptr %3, align 8
  br label %42

42:                                               ; preds = %39, %36
  %43 = load i32, ptr %4, align 4
  ret i32 %43
}