; Function Attrs: nounwind uwtable
define internal range(i32 -1, 1) i32 @H5C__prefetched_entry_free_icr(ptr noundef %0) #0 {
  %2 = getelementptr inbounds i8, ptr %0, i64 176
  %3 = load ptr, ptr %2, align 8
  %.not = icmp eq ptr %3, null
  br i1 %.not, label %6, label %4

4:                                                ; preds = %1
  %5 = tail call ptr @H5MM_xfree(ptr noundef nonnull %3) #2
  store ptr %5, ptr %2, align 8
  br label %6

6:                                                ; preds = %1, %4
  %7 = getelementptr inbounds i8, ptr %0, i64 24
  %8 = load ptr, ptr %7, align 8
  %.not8 = icmp eq ptr %8, null
  br i1 %.not8, label %13, label %9

9:                                                ; preds = %6
  %10 = load i64, ptr @H5E_CACHE_g, align 8
  %11 = load i64, ptr @H5E_SYSTEM_g, align 8
  %12 = tail call i32 (ptr, ptr, i32, i64, i64, ptr, ...) @H5E_printf_stack(ptr noundef nonnull @.str.1, ptr noundef nonnull @__func__.H5C__prefetched_entry_free_icr, i32 noundef 302, i64 noundef %10, i64 noundef %11, ptr noundef nonnull @.str.5) #2
  br label %15

13:                                               ; preds = %6
  %14 = tail call ptr @H5FL_reg_free(ptr noundef nonnull @H5_H5C_cache_entry_t_reg_free_list, ptr noundef nonnull %0) #2
  br label %15

15:                                               ; preds = %13, %9
  %.0 = phi i32 [ -1, %9 ], [ 0, %13 ]
  ret i32 %.0
}